target datalayout = "e-m:e-p270:32:32-p271:32:32-p272:64:64-i64:64-i128:128-f80:128-n8:16:32:64-S128"
target triple = "x86_64-pc-linux-gnu"

%"class.std::basic_istream" = type { ptr, i64, %"class.std::basic_ios" }
%"class.std::basic_ios" = type { %"class.std::ios_base", ptr, i8, i8, ptr, ptr, ptr, ptr }
%"class.std::ios_base" = type { ptr, i64, i64, i32, i32, i32, ptr, %"struct.std::ios_base::_Words", [8 x %"struct.std::ios_base::_Words"], i32, ptr, %"class.std::locale" }
%"struct.std::ios_base::_Words" = type { ptr, i64 }
%"class.std::locale" = type { ptr }
%"class.std::basic_ostream" = type { ptr, %"class.std::basic_ios" }
%class.V3LexerBase = type <{ %class.FlexLexer.base, i32, i32, [4 x i8], ptr, %"class.std::basic_istream", %"class.std::basic_ostream", i8, [3 x i8], i32, ptr, i32, i32, i32, [4 x i8], i64, i64, ptr, i32, [4 x i8], ptr, ptr, ptr, ptr, ptr, i32, i32, i32, i32, i32, i32, i32, [4 x i8] }>
%class.FlexLexer.base = type <{ ptr, ptr, i32, i32, i32 }>
%class.FlexLexer = type <{ ptr, ptr, i32, i32, i32, [4 x i8] }>

@_ZSt3cin = external global %"class.std::basic_istream", align 8
@_ZSt4cout = external global %"class.std::basic_ostream", align 8

; Function Attrs: mustprogress nounwind uwtable
define linkonce_odr dso_local void @_ZN9FlexLexerD2Ev(ptr noundef nonnull align 8 dereferenceable(28) %0) unnamed_addr #4 comdat align 2 {
  %2 = alloca ptr, align 8
  store ptr %0, ptr %2, align 8
  ret void
}

; Function Attrs: mustprogress nounwind uwtable
define dso_local void @_ZN11V3LexerBase11ctor_commonEv(ptr noundef nonnull align 8 dereferenceable(732) %0) #4 align 2 {
  %2 = alloca ptr, align 8
  store ptr %0, ptr %2, align 8
  %3 = load ptr, ptr %2, align 8
  %4 = getelementptr inbounds %class.V3LexerBase, ptr %3, i32 0, i32 10
  store ptr null, ptr %4, align 8
  %5 = getelementptr inbounds %class.V3LexerBase, ptr %3, i32 0, i32 11
  store i32 0, ptr %5, align 8
  %6 = getelementptr inbounds %class.V3LexerBase, ptr %3, i32 0, i32 12
  store i32 0, ptr %6, align 4
  %7 = getelementptr inbounds %class.FlexLexer, ptr %3, i32 0, i32 4
  store i32 0, ptr %7, align 8
  %8 = getelementptr inbounds %class.FlexLexer, ptr %3, i32 0, i32 3
  store i32 1, ptr %8, align 4
  %9 = getelementptr inbounds %class.V3LexerBase, ptr %3, i32 0, i32 13
  store i32 0, ptr %9, align 8
  %10 = getelementptr inbounds %class.V3LexerBase, ptr %3, i32 0, i32 27
  store i32 0, ptr %10, align 8
  %11 = getelementptr inbounds %class.V3LexerBase, ptr %3, i32 0, i32 28
  store i32 0, ptr %11, align 4
  %12 = getelementptr inbounds %class.V3LexerBase, ptr %3, i32 0, i32 29
  store i32 0, ptr %12, align 8
  %13 = getelementptr inbounds %class.V3LexerBase, ptr %3, i32 0, i32 31
  store i32 0, ptr %13, align 8
  %14 = getelementptr inbounds %class.V3LexerBase, ptr %3, i32 0, i32 30
  store i32 0, ptr %14, align 4
  %15 = getelementptr inbounds %class.V3LexerBase, ptr %3, i32 0, i32 2
  store i32 0, ptr %15, align 8
  %16 = getelementptr inbounds %class.V3LexerBase, ptr %3, i32 0, i32 1
  store i32 0, ptr %16, align 4
  %17 = getelementptr inbounds %class.V3LexerBase, ptr %3, i32 0, i32 4
  store ptr null, ptr %17, align 8
  %18 = getelementptr inbounds %class.V3LexerBase, ptr %3, i32 0, i32 17
  store ptr null, ptr %18, align 8
  %19 = getelementptr inbounds %class.V3LexerBase, ptr %3, i32 0, i32 15
  store i64 0, ptr %19, align 8
  %20 = getelementptr inbounds %class.V3LexerBase, ptr %3, i32 0, i32 16
  store i64 0, ptr %20, align 8
  %21 = getelementptr inbounds %class.V3LexerBase, ptr %3, i32 0, i32 21
  store ptr null, ptr %21, align 8
  ret void
}

; Function Attrs: mustprogress nounwind uwtable
define linkonce_odr dso_local void @_ZN9FlexLexerC2Ev(ptr noundef nonnull align 8 dereferenceable(28) %0) unnamed_addr #4 comdat align 2 {
  %2 = alloca ptr, align 8
  store ptr %0, ptr %2, align 8
  %3 = load ptr, ptr %2, align 8
  store ptr getelementptr inbounds inrange(-16, 88) ({ [13 x ptr] }, ptr @_ZTV9FlexLexer, i32 0, i32 0, i32 2), ptr %3, align 8
  ret void
}

; Function Attrs: mustprogress uwtable
define dso_local void @_ZN11V3LexerBaseC2EPSiPSo(ptr noundef nonnull align 8 dereferenceable(732) %0, ptr noundef %1, ptr noundef %2) unnamed_addr #5 align 2 personality ptr @__gxx_personality_v0 {
  %4 = alloca ptr, align 8
  %5 = alloca ptr, align 8
  %6 = alloca ptr, align 8
  %7 = alloca ptr, align 8
  %8 = alloca i32, align 4
  store ptr %0, ptr %4, align 8
  store ptr %1, ptr %5, align 8
  store ptr %2, ptr %6, align 8
  %9 = load ptr, ptr %4, align 8
  call void @_ZN9FlexLexerC2Ev(ptr noundef nonnull align 8 dereferenceable(28) %9) #3
  store ptr getelementptr inbounds inrange(-16, 120) ({ [17 x ptr] }, ptr @_ZTV11V3LexerBase, i32 0, i32 0, i32 2), ptr %9, align 8
  %10 = getelementptr inbounds %class.V3LexerBase, ptr %9, i32 0, i32 5
  %11 = load ptr, ptr %5, align 8
  %12 = icmp ne ptr %11, null
  br i1 %12, label %13, label %21

13:                                               ; preds = %3
  %14 = load ptr, ptr %5, align 8
  %15 = load ptr, ptr %14, align 8
  %16 = getelementptr i8, ptr %15, i64 -24
  %17 = load i64, ptr %16, align 8
  %18 = getelementptr inbounds i8, ptr %14, i64 %17
  %19 = invoke noundef ptr @_ZNKSt9basic_iosIcSt11char_traitsIcEE5rdbufEv(ptr noundef nonnull align 8 dereferenceable(264) %18)
          to label %20 unwind label %53

20:                                               ; preds = %13
  br label %28

21:                                               ; preds = %3
  %22 = load ptr, ptr @_ZSt3cin, align 8
  %23 = getelementptr i8, ptr %22, i64 -24
  %24 = load i64, ptr %23, align 8
  %25 = getelementptr inbounds i8, ptr @_ZSt3cin, i64 %24
  %26 = invoke noundef ptr @_ZNKSt9basic_iosIcSt11char_traitsIcEE5rdbufEv(ptr noundef nonnull align 8 dereferenceable(264) %25)
          to label %27 unwind label %53

27:                                               ; preds = %21
  br label %28

28:                                               ; preds = %27, %20
  %29 = phi ptr [ %19, %20 ], [ %26, %27 ]
  invoke void @_ZNSiC1EPSt15basic_streambufIcSt11char_traitsIcEE(ptr noundef nonnull align 8 dereferenceable(16) %10, ptr noundef %29)
          to label %30 unwind label %53

30:                                               ; preds = %28
  %31 = getelementptr inbounds %class.V3LexerBase, ptr %9, i32 0, i32 6
  %32 = load ptr, ptr %6, align 8
  %33 = icmp ne ptr %32, null
  br i1 %33, label %34, label %42

34:                                               ; preds = %30
  %35 = load ptr, ptr %6, align 8
  %36 = load ptr, ptr %35, align 8
  %37 = getelementptr i8, ptr %36, i64 -24
  %38 = load i64, ptr %37, align 8
  %39 = getelementptr inbounds i8, ptr %35, i64 %38
  %40 = invoke noundef ptr @_ZNKSt9basic_iosIcSt11char_traitsIcEE5rdbufEv(ptr noundef nonnull align 8 dereferenceable(264) %39)
          to label %41 unwind label %57

41:                                               ; preds = %34
  br label %49

42:                                               ; preds = %30
  %43 = load ptr, ptr @_ZSt4cout, align 8
  %44 = getelementptr i8, ptr %43, i64 -24
  %45 = load i64, ptr %44, align 8
  %46 = getelementptr inbounds i8, ptr @_ZSt4cout, i64 %45
  %47 = invoke noundef ptr @_ZNKSt9basic_iosIcSt11char_traitsIcEE5rdbufEv(ptr noundef nonnull align 8 dereferenceable(264) %46)
          to label %48 unwind label %57

48:                                               ; preds = %42
  br label %49

49:                                               ; preds = %48, %41
  %50 = phi ptr [ %40, %41 ], [ %47, %48 ]
  invoke void @_ZNSoC1EPSt15basic_streambufIcSt11char_traitsIcEE(ptr noundef nonnull align 8 dereferenceable(8) %31, ptr noundef %50)
          to label %51 unwind label %57

51:                                               ; preds = %49
  invoke void @_ZN11V3LexerBase11ctor_commonEv(ptr noundef nonnull align 8 dereferenceable(732) %9)
          to label %52 unwind label %61

52:                                               ; preds = %51
  ret void

53:                                               ; preds = %28, %21, %13
  %54 = landingpad { ptr, i32 }
          cleanup
  %55 = extractvalue { ptr, i32 } %54, 0
  store ptr %55, ptr %7, align 8
  %56 = extractvalue { ptr, i32 } %54, 1
  store i32 %56, ptr %8, align 4
  br label %66

57:                                               ; preds = %49, %42, %34
  %58 = landingpad { ptr, i32 }
          cleanup
  %59 = extractvalue { ptr, i32 } %58, 0
  store ptr %59, ptr %7, align 8
  %60 = extractvalue { ptr, i32 } %58, 1
  store i32 %60, ptr %8, align 4
  br label %65

61:                                               ; preds = %51
  %62 = landingpad { ptr, i32 }
          cleanup
  %63 = extractvalue { ptr, i32 } %62, 0
  store ptr %63, ptr %7, align 8
  %64 = extractvalue { ptr, i32 } %62, 1
  store i32 %64, ptr %8, align 4
  call void @_ZNSoD1Ev(ptr noundef nonnull align 8 dereferenceable(8) %31) #3
  br label %65

65:                                               ; preds = %61, %57
  call void @_ZNSiD1Ev(ptr noundef nonnull align 8 dereferenceable(16) %10) #3
  br label %66

66:                                               ; preds = %65, %53
  call void @_ZN9FlexLexerD2Ev(ptr noundef nonnull align 8 dereferenceable(28) %9) #3
  br label %67

67:                                               ; preds = %66
  %68 = load ptr, ptr %7, align 8
  %69 = load i32, ptr %8, align 4
  %70 = insertvalue { ptr, i32 } poison, ptr %68, 0
  %71 = insertvalue { ptr, i32 } %70, i32 %69, 1
  resume { ptr, i32 } %71
}