; Function Attrs: mustprogress uwtable
define dso_local void @_ZN11V3LexerBaseC2EPSiPSo(ptr noundef nonnull align 8 dereferenceable(732) %0, ptr noundef %1, ptr noundef %2) unnamed_addr #4 align 2 personality ptr @__gxx_personality_v0 {
.invoke:
  store ptr getelementptr inbounds inrange(-16, 120) ({ [17 x ptr] }, ptr @_ZTV11V3LexerBase, i64 0, i32 0, i64 2), ptr %0, align 8
  %3 = getelementptr inbounds i8, ptr %0, i64 48
  %.not = icmp eq ptr %1, null
  %_ZSt3cin. = select i1 %.not, ptr @_ZSt3cin, ptr %1
  %4 = load ptr, ptr %_ZSt3cin., align 8
  %5 = getelementptr i8, ptr %4, i64 -24
  %6 = load i64, ptr %5, align 8
  %7 = getelementptr inbounds i8, ptr %_ZSt3cin., i64 %6
  %8 = tail call noundef ptr @_ZNKSt9basic_iosIcSt11char_traitsIcEE5rdbufEv(ptr noundef nonnull align 8 dereferenceable(264) %7)
  tail call void @_ZNSiC1EPSt15basic_streambufIcSt11char_traitsIcEE(ptr noundef nonnull align 8 dereferenceable(16) %3, ptr noundef %8)
  %.not9 = icmp eq ptr %2, null
  %_ZSt4cout. = select i1 %.not9, ptr @_ZSt4cout, ptr %2
  %9 = load ptr, ptr %_ZSt4cout., align 8
  %10 = getelementptr i8, ptr %9, i64 -24
  %11 = load i64, ptr %10, align 8
  %12 = getelementptr inbounds i8, ptr %_ZSt4cout., i64 %11
  %13 = invoke noundef ptr @_ZNKSt9basic_iosIcSt11char_traitsIcEE5rdbufEv(ptr noundef nonnull align 8 dereferenceable(264) %12)
          to label %14 unwind label %24

14:                                               ; preds = %.invoke
  %15 = getelementptr inbounds i8, ptr %0, i64 328
  invoke void @_ZNSoC1EPSt15basic_streambufIcSt11char_traitsIcEE(ptr noundef nonnull align 8 dereferenceable(8) %15, ptr noundef %13)
          to label %16 unwind label %24

16:                                               ; preds = %14
  %17 = getelementptr inbounds i8, ptr %0, i64 608
  %18 = getelementptr inbounds i8, ptr %0, i64 20
  tail call void @llvm.memset.p0.i64(ptr noundef nonnull align 8 dereferenceable(16) %17, i8 0, i64 16, i1 false)
  %19 = getelementptr inbounds i8, ptr %0, i64 624
  store i32 0, ptr %19, align 8
  %20 = getelementptr inbounds i8, ptr %0, i64 712
  store <4 x i32> <i32 1, i32 0, i32 0, i32 0>, ptr %18, align 4
  %21 = getelementptr inbounds i8, ptr %0, i64 40
  store ptr null, ptr %21, align 8
  %22 = getelementptr inbounds i8, ptr %0, i64 632
  %23 = getelementptr inbounds i8, ptr %0, i64 672
  store ptr null, ptr %23, align 8
  tail call void @llvm.memset.p0.i64(ptr noundef nonnull align 8 dereferenceable(24) %22, i8 0, i64 24, i1 false)
  tail call void @llvm.memset.p0.i64(ptr noundef nonnull align 8 dereferenceable(20) %20, i8 0, i64 20, i1 false)
  ret void

24:                                               ; preds = %.invoke, %14
  %25 = landingpad { ptr, i32 }
          cleanup
  tail call void @_ZNSiD1Ev(ptr noundef nonnull align 8 dereferenceable(16) %3) #33
  resume { ptr, i32 } %25
}